target datalayout = "e-m:e-p270:32:32-p271:32:32-p272:64:64-i64:64-i128:128-f80:128-n8:16:32:64-S128"
target triple = "x86_64-pc-linux-gnu"

%struct.VuDev = type { i32, i32, ptr, ptr, %struct.VuDevInflightInfo, i32, %union.pthread_mutex_t, i32, i64, ptr, i64, i64, i8, i16, ptr, ptr, ptr, ptr, ptr, i32, i8 }
%struct.VuDevInflightInfo = type { i32, ptr, i64 }
%union.pthread_mutex_t = type { %struct.__pthread_mutex_s }
%struct.__pthread_mutex_s = type { i32, i32, i32, i32, i32, i16, i16, %struct.__pthread_internal_list }
%struct.__pthread_internal_list = type { ptr, ptr }
%struct.VuVirtq = type { %struct.VuRing, ptr, ptr, i16, i64, i16, i16, i16, i16, i8, i8, i32, ptr, i32, i32, i32, i32, i8, %struct.vhost_vring_addr }
%struct.VuRing = type { i32, ptr, ptr, ptr, i64, i32 }
%struct.vhost_vring_addr = type { i32, i32, i64, i64, i64, i64 }
%struct.VhostUserMsg = type <{ i32, i32, i32, %union.anon, [8 x i32], i32, ptr }>
%union.anon = type { %struct.VhostUserMemory, [8 x i8] }
%struct.VhostUserMemory = type { i32, i32, [8 x %struct.VhostUserMemoryRegion] }
%struct.VhostUserMemoryRegion = type { i64, i64, i64, i64 }
%struct.VuDevIface = type { ptr, ptr, ptr, ptr, ptr, ptr, ptr, ptr, ptr, ptr }

@.str.40 = private unnamed_addr constant [50 x i8] c"../qemu/subprojects/libvhost-user/libvhost-user.c\00", align 1
@.str.52 = private unnamed_addr constant [10 x i8] c"fbit < 64\00", align 1
@__PRETTY_FUNCTION__.has_feature = private unnamed_addr constant [42 x i8] c"_Bool has_feature(uint64_t, unsigned int)\00", align 1
@.str.60 = private unnamed_addr constant [56 x i8] c"virtio legacy devices aren't supported by libvhost-user\00", align 1

; Function Attrs: inlinehint nounwind uwtable
define internal zeroext i1 @has_feature(i64 noundef %0, i32 noundef %1) #3 {
  %3 = alloca i64, align 8
  %4 = alloca i32, align 4
  store i64 %0, ptr %3, align 8
  store i32 %1, ptr %4, align 4
  %5 = load i32, ptr %4, align 4
  %6 = icmp ult i32 %5, 64
  br i1 %6, label %7, label %8

7:                                                ; preds = %2
  br label %9

8:                                                ; preds = %2
  call void @__assert_fail(ptr noundef @.str.52, ptr noundef @.str.40, i32 noundef 109, ptr noundef @__PRETTY_FUNCTION__.has_feature) #15
  unreachable

9:                                                ; preds = %7
  %10 = load i64, ptr %3, align 8
  %11 = load i32, ptr %4, align 4
  %12 = zext i32 %11 to i64
  %13 = shl i64 1, %12
  %14 = and i64 %10, %13
  %15 = icmp ne i64 %14, 0
  %16 = xor i1 %15, true
  %17 = xor i1 %16, true
  ret i1 %17
}

; Function Attrs: nounwind uwtable
define internal void @vu_set_enable_all_rings(ptr noundef %0, i1 noundef zeroext %1) #0 {
  %3 = alloca ptr, align 8
  %4 = alloca i8, align 1
  %5 = alloca i16, align 2
  store ptr %0, ptr %3, align 8
  %6 = zext i1 %1 to i8
  store i8 %6, ptr %4, align 1
  call void @llvm.lifetime.start.p0(i64 2, ptr %5) #13
  store i16 0, ptr %5, align 2, !annotation !4
  store i16 0, ptr %5, align 2
  br label %7

7:                                                ; preds = %26, %2
  %8 = load i16, ptr %5, align 2
  %9 = zext i16 %8 to i32
  %10 = load ptr, ptr %3, align 8
  %11 = getelementptr inbounds nuw %struct.VuDev, ptr %10, i32 0, i32 13
  %12 = load i16, ptr %11, align 2
  %13 = zext i16 %12 to i32
  %14 = icmp slt i32 %9, %13
  br i1 %14, label %15, label %29

15:                                               ; preds = %7
  %16 = load i8, ptr %4, align 1, !range !5, !noundef !6
  %17 = trunc i8 %16 to i1
  %18 = zext i1 %17 to i32
  %19 = load ptr, ptr %3, align 8
  %20 = getelementptr inbounds nuw %struct.VuDev, ptr %19, i32 0, i32 3
  %21 = load ptr, ptr %20, align 8
  %22 = load i16, ptr %5, align 2
  %23 = zext i16 %22 to i64
  %24 = getelementptr inbounds nuw %struct.VuVirtq, ptr %21, i64 %23
  %25 = getelementptr inbounds nuw %struct.VuVirtq, ptr %24, i32 0, i32 16
  store i32 %18, ptr %25, align 4
  br label %26

26:                                               ; preds = %15
  %27 = load i16, ptr %5, align 2
  %28 = add i16 %27, 1
  store i16 %28, ptr %5, align 2
  br label %7

29:                                               ; preds = %7
  call void @llvm.lifetime.end.p0(i64 2, ptr %5) #13
  ret void
}

; Function Attrs: inlinehint nounwind uwtable
define internal zeroext i1 @vu_has_feature(ptr noundef %0, i32 noundef %1) #3 {
  %3 = alloca ptr, align 8
  %4 = alloca i32, align 4
  store ptr %0, ptr %3, align 8
  store i32 %1, ptr %4, align 4
  %5 = load ptr, ptr %3, align 8
  %6 = getelementptr inbounds nuw %struct.VuDev, ptr %5, i32 0, i32 10
  %7 = load i64, ptr %6, align 8
  %8 = load i32, ptr %4, align 4
  %9 = call zeroext i1 @has_feature(i64 noundef %7, i32 noundef %8)
  ret i1 %9
}

; Function Attrs: nounwind uwtable
define internal zeroext i1 @vu_set_features_exec(ptr noundef %0, ptr noundef %1) #0 {
  %3 = alloca i1, align 1
  %4 = alloca ptr, align 8
  %5 = alloca ptr, align 8
  store ptr %0, ptr %4, align 8
  store ptr %1, ptr %5, align 8
  br label %6

6:                                                ; preds = %2
  br label %7

7:                                                ; preds = %6
  %8 = load ptr, ptr %5, align 8
  %9 = getelementptr inbounds nuw %struct.VhostUserMsg, ptr %8, i32 0, i32 3
  %10 = load i64, ptr %9, align 1
  %11 = load ptr, ptr %4, align 8
  %12 = getelementptr inbounds nuw %struct.VuDev, ptr %11, i32 0, i32 10
  store i64 %10, ptr %12, align 8
  %13 = load ptr, ptr %4, align 8
  %14 = call zeroext i1 @vu_has_feature(ptr noundef %13, i32 noundef 32)
  br i1 %14, label %17, label %15

15:                                               ; preds = %7
  %16 = load ptr, ptr %4, align 8
  call void (ptr, ptr, ...) @vu_panic(ptr noundef %16, ptr noundef @.str.60)
  store i1 false, ptr %3, align 1
  br label %43

17:                                               ; preds = %7
  %18 = load ptr, ptr %4, align 8
  %19 = getelementptr inbounds nuw %struct.VuDev, ptr %18, i32 0, i32 10
  %20 = load i64, ptr %19, align 8
  %21 = and i64 %20, 30
  %22 = icmp ne i64 %21, 0
  br i1 %22, label %25, label %23

23:                                               ; preds = %17
  %24 = load ptr, ptr %4, align 8
  call void @vu_set_enable_all_rings(ptr noundef %24, i1 noundef zeroext true)
  br label %25

25:                                               ; preds = %23, %17
  %26 = load ptr, ptr %4, align 8
  %27 = getelementptr inbounds nuw %struct.VuDev, ptr %26, i32 0, i32 18
  %28 = load ptr, ptr %27, align 8
  %29 = getelementptr inbounds nuw %struct.VuDevIface, ptr %28, i32 0, i32 1
  %30 = load ptr, ptr %29, align 8
  %31 = icmp ne ptr %30, null
  br i1 %31, label %32, label %42

32:                                               ; preds = %25
  %33 = load ptr, ptr %4, align 8
  %34 = getelementptr inbounds nuw %struct.VuDev, ptr %33, i32 0, i32 18
  %35 = load ptr, ptr %34, align 8
  %36 = getelementptr inbounds nuw %struct.VuDevIface, ptr %35, i32 0, i32 1
  %37 = load ptr, ptr %36, align 8
  %38 = load ptr, ptr %4, align 8
  %39 = load ptr, ptr %4, align 8
  %40 = getelementptr inbounds nuw %struct.VuDev, ptr %39, i32 0, i32 10
  %41 = load i64, ptr %40, align 8
  call void %37(ptr noundef %38, i64 noundef %41)
  br label %42

42:                                               ; preds = %32, %25
  store i1 false, ptr %3, align 1
  br label %43

43:                                               ; preds = %42, %15
  %44 = load i1, ptr %3, align 1
  ret i1 %44
}