; Function Attrs: nounwind uwtable
define internal fastcc void @vu_set_features_exec(ptr noundef initializes((120, 128)) %0, i64 %.12.val) unnamed_addr #3 {
  %2 = getelementptr inbounds nuw i8, ptr %0, i64 120
  store i64 %.12.val, ptr %2, align 8
  %3 = and i64 %.12.val, 4294967296
  %.not1 = icmp eq i64 %3, 0
  br i1 %.not1, label %4, label %5

4:                                                ; preds = %1
  tail call void (ptr, ptr, ...) @vu_panic(ptr noundef nonnull %0, ptr noundef nonnull @.str.60)
  br label %23

5:                                                ; preds = %1
  %6 = and i64 %.12.val, 30
  %.not = icmp eq i64 %6, 0
  br i1 %.not, label %7, label %vu_set_enable_all_rings.exit

7:                                                ; preds = %5
  %8 = getelementptr inbounds nuw i8, ptr %0, i64 138
  %9 = load i16, ptr %8, align 2
  %.not.i = icmp eq i16 %9, 0
  br i1 %.not.i, label %vu_set_enable_all_rings.exit, label %.lr.ph.i

.lr.ph.i:                                         ; preds = %7
  %10 = getelementptr inbounds nuw i8, ptr %0, i64 16
  br label %11

11:                                               ; preds = %11, %.lr.ph.i
  %indvars.iv.i = phi i64 [ 0, %.lr.ph.i ], [ %indvars.iv.next.i, %11 ]
  %12 = load ptr, ptr %10, align 8
  %13 = getelementptr inbounds nuw %struct.VuVirtq, ptr %12, i64 %indvars.iv.i, i32 16
  store i32 1, ptr %13, align 4
  %indvars.iv.next.i = add nuw nsw i64 %indvars.iv.i, 1
  %14 = load i16, ptr %8, align 2
  %15 = zext i16 %14 to i64
  %16 = icmp samesign ult i64 %indvars.iv.next.i, %15
  br i1 %16, label %11, label %vu_set_enable_all_rings.exit

vu_set_enable_all_rings.exit:                     ; preds = %11, %7, %5
  %17 = getelementptr inbounds nuw i8, ptr %0, i64 176
  %18 = load ptr, ptr %17, align 8
  %19 = getelementptr inbounds nuw i8, ptr %18, i64 8
  %20 = load ptr, ptr %19, align 8
  %.not11 = icmp eq ptr %20, null
  br i1 %.not11, label %23, label %21

21:                                               ; preds = %vu_set_enable_all_rings.exit
  %22 = load i64, ptr %2, align 8
  tail call void %20(ptr noundef nonnull %0, i64 noundef %22) #21
  br label %23

23:                                               ; preds = %vu_set_enable_all_rings.exit, %21, %4
  ret void
}